target datalayout = "e-m:e-p270:32:32-p271:32:32-p272:64:64-i64:64-i128:128-f80:128-n8:16:32:64-S128"
target triple = "x86_64-pc-linux-gnu"

%struct.PSNRDSPContext = type { ptr }

; Function Attrs: nounwind uwtable
define void @ff_psnr_init(ptr noundef %0, i32 noundef %1) #0 {
  %3 = alloca ptr, align 8
  %4 = alloca i32, align 4
  store ptr %0, ptr %3, align 8, !tbaa !4
  store i32 %1, ptr %4, align 4, !tbaa !9
  %5 = load i32, ptr %4, align 4, !tbaa !9
  %6 = icmp sgt i32 %5, 8
  %7 = select i1 %6, ptr @sse_line_16bit, ptr @sse_line_8bit
  %8 = load ptr, ptr %3, align 8, !tbaa !4
  %9 = getelementptr inbounds nuw %struct.PSNRDSPContext, ptr %8, i32 0, i32 0
  store ptr %7, ptr %9, align 8, !tbaa !11
  ret void
}

; Function Attrs: nounwind uwtable
define internal i64 @sse_line_16bit(ptr noundef %0, ptr noundef %1, i32 noundef %2) #0 {
  %4 = alloca ptr, align 8
  %5 = alloca ptr, align 8
  %6 = alloca i32, align 4
  %7 = alloca i32, align 4
  %8 = alloca i64, align 8
  %9 = alloca ptr, align 8
  %10 = alloca ptr, align 8
  %11 = alloca i32, align 4
  store ptr %0, ptr %4, align 8, !tbaa !13
  store ptr %1, ptr %5, align 8, !tbaa !13
  store i32 %2, ptr %6, align 4, !tbaa !9
  call void @llvm.lifetime.start.p0(i64 4, ptr %7) #2
  call void @llvm.lifetime.start.p0(i64 8, ptr %8) #2
  store i64 0, ptr %8, align 8, !tbaa !15
  call void @llvm.lifetime.start.p0(i64 8, ptr %9) #2
  %12 = load ptr, ptr %4, align 8, !tbaa !13
  store ptr %12, ptr %9, align 8, !tbaa !17
  call void @llvm.lifetime.start.p0(i64 8, ptr %10) #2
  %13 = load ptr, ptr %5, align 8, !tbaa !13
  store ptr %13, ptr %10, align 8, !tbaa !17
  store i32 0, ptr %7, align 4, !tbaa !9
  br label %14

14:                                               ; preds = %38, %3
  %15 = load i32, ptr %7, align 4, !tbaa !9
  %16 = load i32, ptr %6, align 4, !tbaa !9
  %17 = icmp slt i32 %15, %16
  br i1 %17, label %18, label %41

18:                                               ; preds = %14
  call void @llvm.lifetime.start.p0(i64 4, ptr %11) #2
  %19 = load ptr, ptr %9, align 8, !tbaa !17
  %20 = load i32, ptr %7, align 4, !tbaa !9
  %21 = sext i32 %20 to i64
  %22 = getelementptr inbounds i16, ptr %19, i64 %21
  %23 = load i16, ptr %22, align 2, !tbaa !19
  %24 = zext i16 %23 to i32
  %25 = load ptr, ptr %10, align 8, !tbaa !17
  %26 = load i32, ptr %7, align 4, !tbaa !9
  %27 = sext i32 %26 to i64
  %28 = getelementptr inbounds i16, ptr %25, i64 %27
  %29 = load i16, ptr %28, align 2, !tbaa !19
  %30 = zext i16 %29 to i32
  %31 = sub nsw i32 %24, %30
  store i32 %31, ptr %11, align 4, !tbaa !9
  %32 = load i32, ptr %11, align 4, !tbaa !9
  %33 = load i32, ptr %11, align 4, !tbaa !9
  %34 = mul i32 %32, %33
  %35 = zext i32 %34 to i64
  %36 = load i64, ptr %8, align 8, !tbaa !15
  %37 = add i64 %36, %35
  store i64 %37, ptr %8, align 8, !tbaa !15
  call void @llvm.lifetime.end.p0(i64 4, ptr %11) #2
  br label %38

38:                                               ; preds = %18
  %39 = load i32, ptr %7, align 4, !tbaa !9
  %40 = add nsw i32 %39, 1
  store i32 %40, ptr %7, align 4, !tbaa !9
  br label %14, !llvm.loop !21

41:                                               ; preds = %14
  %42 = load i64, ptr %8, align 8, !tbaa !15
  call void @llvm.lifetime.end.p0(i64 8, ptr %10) #2
  call void @llvm.lifetime.end.p0(i64 8, ptr %9) #2
  call void @llvm.lifetime.end.p0(i64 8, ptr %8) #2
  call void @llvm.lifetime.end.p0(i64 4, ptr %7) #2
  ret i64 %42
}

; Function Attrs: nounwind uwtable
define internal i64 @sse_line_8bit(ptr noundef %0, ptr noundef %1, i32 noundef %2) #0 {
  %4 = alloca ptr, align 8
  %5 = alloca ptr, align 8
  %6 = alloca i32, align 4
  %7 = alloca i32, align 4
  %8 = alloca i32, align 4
  %9 = alloca i32, align 4
  store ptr %0, ptr %4, align 8, !tbaa !13
  store ptr %1, ptr %5, align 8, !tbaa !13
  store i32 %2, ptr %6, align 4, !tbaa !9
  call void @llvm.lifetime.start.p0(i64 4, ptr %7) #2
  call void @llvm.lifetime.start.p0(i64 4, ptr %8) #2
  store i32 0, ptr %8, align 4, !tbaa !9
  store i32 0, ptr %7, align 4, !tbaa !9
  br label %10

10:                                               ; preds = %33, %3
  %11 = load i32, ptr %7, align 4, !tbaa !9
  %12 = load i32, ptr %6, align 4, !tbaa !9
  %13 = icmp slt i32 %11, %12
  br i1 %13, label %14, label %36

14:                                               ; preds = %10
  call void @llvm.lifetime.start.p0(i64 4, ptr %9) #2
  %15 = load ptr, ptr %4, align 8, !tbaa !13
  %16 = load i32, ptr %7, align 4, !tbaa !9
  %17 = sext i32 %16 to i64
  %18 = getelementptr inbounds i8, ptr %15, i64 %17
  %19 = load i8, ptr %18, align 1, !tbaa !23
  %20 = zext i8 %19 to i32
  %21 = load ptr, ptr %5, align 8, !tbaa !13
  %22 = load i32, ptr %7, align 4, !tbaa !9
  %23 = sext i32 %22 to i64
  %24 = getelementptr inbounds i8, ptr %21, i64 %23
  %25 = load i8, ptr %24, align 1, !tbaa !23
  %26 = zext i8 %25 to i32
  %27 = sub nsw i32 %20, %26
  store i32 %27, ptr %9, align 4, !tbaa !9
  %28 = load i32, ptr %9, align 4, !tbaa !9
  %29 = load i32, ptr %9, align 4, !tbaa !9
  %30 = mul i32 %28, %29
  %31 = load i32, ptr %8, align 4, !tbaa !9
  %32 = add i32 %31, %30
  store i32 %32, ptr %8, align 4, !tbaa !9
  call void @llvm.lifetime.end.p0(i64 4, ptr %9) #2
  br label %33

33:                                               ; preds = %14
  %34 = load i32, ptr %7, align 4, !tbaa !9
  %35 = add nsw i32 %34, 1
  store i32 %35, ptr %7, align 4, !tbaa !9
  br label %10, !llvm.loop !24

36:                                               ; preds = %10
  %37 = load i32, ptr %8, align 4, !tbaa !9
  %38 = zext i32 %37 to i64
  call void @llvm.lifetime.end.p0(i64 4, ptr %8) #2
  call void @llvm.lifetime.end.p0(i64 4, ptr %7) #2
  ret i64 %38
}

; Function Attrs: nocallback nofree nosync nounwind willreturn memory(argmem: readwrite)
declare void @llvm.lifetime.start.p0(i64 immarg, ptr captures(none)) #1

; Function Attrs: nocallback nofree nosync nounwind willreturn memory(argmem: readwrite)
declare void @llvm.lifetime.end.p0(i64 immarg, ptr captures(none)) #1


!llvm.module.flags = !{!0, !1, !2, !3}

!0 = !{i32 1, !"wchar_size", i32 4}
!1 = !{i32 8, !"PIC Level", i32 2}
!2 = !{i32 7, !"uwtable", i32 2}
!3 = !{i32 1, !"override-stack-alignment", i32 16}
!4 = !{!5, !5, i64 0}
!5 = !{!"p1 _ZTS14PSNRDSPContext", !6, i64 0}
!6 = !{!"any pointer", !7, i64 0}
!7 = !{!"omnipotent char", !8, i64 0}
!8 = !{!"Simple C/C++ TBAA"}
!9 = !{!10, !10, i64 0}
!10 = !{!"int", !7, i64 0}
!11 = !{!12, !6, i64 0}
!12 = !{!"PSNRDSPContext", !6, i64 0}
!13 = !{!14, !14, i64 0}
!14 = !{!"p1 omnipotent char", !6, i64 0}
!15 = !{!16, !16, i64 0}
!16 = !{!"long", !7, i64 0}
!17 = !{!18, !18, i64 0}
!18 = !{!"p1 short", !6, i64 0}
!19 = !{!20, !20, i64 0}
!20 = !{!"short", !7, i64 0}
!21 = distinct !{!21, !22}
!22 = !{!"llvm.loop.mustprogress"}
!23 = !{!7, !7, i64 0}
!24 = distinct !{!24, !22}
