; ModuleID = 'bench/ffmpeg/original/psnr.ll'
source_filename = "bench/ffmpeg/original/psnr.ll"
target datalayout = "e-m:e-p270:32:32-p271:32:32-p272:64:64-i64:64-i128:128-f80:128-n8:16:32:64-S128"
target triple = "x86_64-pc-linux-gnu"

; Function Attrs: mustprogress nofree norecurse nosync nounwind willreturn memory(argmem: write) uwtable
define void @ff_psnr_init(ptr noundef writeonly captures(none) initializes((0, 8)) %0, i32 noundef %1) local_unnamed_addr #0 {
  %3 = icmp sgt i32 %1, 8
  %4 = select i1 %3, ptr @sse_line_16bit, ptr @sse_line_8bit
  store ptr %4, ptr %0, align 8, !tbaa !4
  ret void
}

; Function Attrs: nofree norecurse nosync nounwind memory(argmem: read) uwtable
define internal i64 @sse_line_16bit(ptr noundef readonly captures(none) %0, ptr noundef readonly captures(none) %1, i32 noundef %2) #1 {
  %4 = icmp sgt i32 %2, 0
  br i1 %4, label %.lr.ph.preheader, label %._crit_edge

.lr.ph.preheader:                                 ; preds = %3
  %wide.trip.count = zext nneg i32 %2 to i64
  br label %.lr.ph

.lr.ph:                                           ; preds = %.lr.ph.preheader, %.lr.ph
  %indvars.iv = phi i64 [ 0, %.lr.ph.preheader ], [ %indvars.iv.next, %.lr.ph ]
  %.01213 = phi i64 [ 0, %.lr.ph.preheader ], [ %14, %.lr.ph ]
  %5 = getelementptr inbounds nuw i16, ptr %0, i64 %indvars.iv
  %6 = load i16, ptr %5, align 2, !tbaa !9
  %7 = zext i16 %6 to i32
  %8 = getelementptr inbounds nuw i16, ptr %1, i64 %indvars.iv
  %9 = load i16, ptr %8, align 2, !tbaa !9
  %10 = zext i16 %9 to i32
  %11 = sub nsw i32 %7, %10
  %12 = mul i32 %11, %11
  %13 = zext i32 %12 to i64
  %14 = add i64 %.01213, %13
  %indvars.iv.next = add nuw nsw i64 %indvars.iv, 1
  %exitcond.not = icmp eq i64 %indvars.iv.next, %wide.trip.count
  br i1 %exitcond.not, label %._crit_edge, label %.lr.ph, !llvm.loop !11

._crit_edge:                                      ; preds = %.lr.ph, %3
  %.012.lcssa = phi i64 [ 0, %3 ], [ %14, %.lr.ph ]
  ret i64 %.012.lcssa
}

; Function Attrs: nofree norecurse nosync nounwind memory(argmem: read) uwtable
define internal range(i64 0, 4294967296) i64 @sse_line_8bit(ptr noundef readonly captures(none) %0, ptr noundef readonly captures(none) %1, i32 noundef %2) #1 {
  %4 = icmp sgt i32 %2, 0
  br i1 %4, label %.lr.ph.preheader, label %._crit_edge

.lr.ph.preheader:                                 ; preds = %3
  %wide.trip.count = zext nneg i32 %2 to i64
  br label %.lr.ph

.lr.ph:                                           ; preds = %.lr.ph.preheader, %.lr.ph
  %indvars.iv = phi i64 [ 0, %.lr.ph.preheader ], [ %indvars.iv.next, %.lr.ph ]
  %.01011 = phi i32 [ 0, %.lr.ph.preheader ], [ %13, %.lr.ph ]
  %5 = getelementptr inbounds nuw i8, ptr %0, i64 %indvars.iv
  %6 = load i8, ptr %5, align 1, !tbaa !13
  %7 = zext i8 %6 to i32
  %8 = getelementptr inbounds nuw i8, ptr %1, i64 %indvars.iv
  %9 = load i8, ptr %8, align 1, !tbaa !13
  %10 = zext i8 %9 to i32
  %11 = sub nsw i32 %7, %10
  %12 = mul nsw i32 %11, %11
  %13 = add i32 %12, %.01011
  %indvars.iv.next = add nuw nsw i64 %indvars.iv, 1
  %exitcond.not = icmp eq i64 %indvars.iv.next, %wide.trip.count
  br i1 %exitcond.not, label %._crit_edge.loopexit, label %.lr.ph, !llvm.loop !14

._crit_edge.loopexit:                             ; preds = %.lr.ph
  %14 = zext i32 %13 to i64
  br label %._crit_edge

._crit_edge:                                      ; preds = %._crit_edge.loopexit, %3
  %.010.lcssa = phi i64 [ 0, %3 ], [ %14, %._crit_edge.loopexit ]
  ret i64 %.010.lcssa
}


!llvm.module.flags = !{!0, !1, !2, !3}

!0 = !{i32 1, !"wchar_size", i32 4}
!1 = !{i32 8, !"PIC Level", i32 2}
!2 = !{i32 7, !"uwtable", i32 2}
!3 = !{i32 1, !"override-stack-alignment", i32 16}
!4 = !{!5, !6, i64 0}
!5 = !{!"PSNRDSPContext", !6, i64 0}
!6 = !{!"any pointer", !7, i64 0}
!7 = !{!"omnipotent char", !8, i64 0}
!8 = !{!"Simple C/C++ TBAA"}
!9 = !{!10, !10, i64 0}
!10 = !{!"short", !7, i64 0}
!11 = distinct !{!11, !12}
!12 = !{!"llvm.loop.mustprogress"}
!13 = !{!7, !7, i64 0}
!14 = distinct !{!14, !12}
